target datalayout = "e-m:e-p270:32:32-p271:32:32-p272:64:64-i64:64-i128:128-f80:128-n8:16:32:64-S128"
target triple = "x86_64-pc-linux-gnu"

%struct._asn1_ctx_t = type { i32, i32, i8, ptr, ptr, ptr, ptr, ptr, %struct.anon, %struct.anon.2, %struct.anon.3, ptr }
%struct.anon = type { i32, i8, i8, i8, ptr, ptr, i32, i32, ptr, ptr, ptr, %union.anon }
%union.anon = type { %struct.anon.0 }
%struct.anon.0 = type { ptr }
%struct.anon.2 = type { ptr, ptr, ptr }
%struct.anon.3 = type { i32, i8, ptr, i32, i32, ptr, ptr, ptr, %union.anon.4 }
%union.anon.4 = type { %struct.anon.5 }
%struct.anon.5 = type { ptr }
%struct._packet_info = type { ptr, ptr, i32, i32, %struct.nstime_t, %struct.nstime_t, %struct.nstime_t, i8, ptr, ptr, ptr, ptr, %struct._address, %struct._address, %struct._address, %struct._address, %struct._address, %struct._address, i32, ptr, i8, [3 x i8], %struct.anon.7, i32, i32, i32, i32, ptr, i8, ptr, ptr, i16, i16, i32, i32, i16, i32, i32, ptr, ptr, ptr, i8, i8, i16, i16, i16, i32, i16, i16, ptr, ptr, ptr, ptr, ptr, i32, i32 }
%struct.nstime_t = type { i64, i32 }
%struct._address = type { i32, i32, ptr, ptr }
%struct.anon.7 = type { i8, [3 x i8] }

@hf_t124_DomainMCSPDU_PDU = internal global i32 0, align 4
@ett_t124_DomainMCSPDU = internal global i32 0, align 4
@.str.482 = private unnamed_addr constant [4 x i8] c"%s \00", align 1
@.str.483 = private unnamed_addr constant [8 x i8] c"Unknown\00", align 1

; Function Attrs: null_pointer_is_valid sspstrong uwtable
define internal i32 @dissect_t124_DomainMCSPDU(ptr noundef %0, i32 noundef %1, ptr noundef %2, ptr noundef %3, i32 noundef %4) #0 {
  %6 = alloca ptr, align 8
  %7 = alloca i32, align 4
  %8 = alloca ptr, align 8
  %9 = alloca ptr, align 8
  %10 = alloca i32, align 4
  %11 = alloca i32, align 4
  store ptr %0, ptr %6, align 8
  store i32 %1, ptr %7, align 4
  store ptr %2, ptr %8, align 8
  store ptr %3, ptr %9, align 8
  store i32 %4, ptr %10, align 4
  call void @llvm.lifetime.start.p0(i64 4, ptr %11) #7
  %12 = load ptr, ptr %6, align 8
  %13 = load i32, ptr %7, align 4
  %14 = load ptr, ptr %8, align 8
  %15 = load ptr, ptr %9, align 8
  %16 = load i32, ptr %10, align 4
  %17 = load i32, ptr @ett_t124_DomainMCSPDU, align 4
  %18 = call i32 @dissect_per_choice(ptr noundef %12, i32 noundef %13, ptr noundef %14, ptr noundef %15, i32 noundef %16, i32 noundef %17, ptr noundef @DomainMCSPDU_choice, ptr noundef %11)
  store i32 %18, ptr %7, align 4
  %19 = load i32, ptr %11, align 4
  switch i32 %19, label %21 [
    i32 25, label %20
    i32 26, label %20
    i32 27, label %20
    i32 28, label %20
  ]

20:                                               ; preds = %5, %5, %5, %5
  br label %29

21:                                               ; preds = %5
  %22 = load ptr, ptr %8, align 8
  %23 = getelementptr inbounds nuw %struct._asn1_ctx_t, ptr %22, i32 0, i32 3
  %24 = load ptr, ptr %23, align 8
  %25 = getelementptr inbounds nuw %struct._packet_info, ptr %24, i32 0, i32 1
  %26 = load ptr, ptr %25, align 8
  %27 = load i32, ptr %11, align 4
  %28 = call ptr @val_to_str_const(i32 noundef %27, ptr noundef @t124_DomainMCSPDU_vals, ptr noundef @.str.483)
  call void (ptr, i32, ptr, ...) @col_prepend_fstr(ptr noundef %26, i32 noundef 25, ptr noundef @.str.482, ptr noundef %28)
  br label %29

29:                                               ; preds = %21, %20
  %30 = load i32, ptr %7, align 4
  call void @llvm.lifetime.end.p0(i64 4, ptr %11) #7
  ret i32 %30
}

; Function Attrs: null_pointer_is_valid sspstrong uwtable
define hidden i32 @dissect_DomainMCSPDU_PDU(ptr noundef %0, ptr noundef %1, ptr noundef %2) #0 {
  %4 = alloca ptr, align 8
  %5 = alloca ptr, align 8
  %6 = alloca ptr, align 8
  %7 = alloca i32, align 4
  %8 = alloca %struct._asn1_ctx_t, align 8
  store ptr %0, ptr %4, align 8
  store ptr %1, ptr %5, align 8
  store ptr %2, ptr %6, align 8
  call void @llvm.lifetime.start.p0(i64 4, ptr %7) #7
  store i32 0, ptr %7, align 4
  call void @llvm.lifetime.start.p0(i64 208, ptr %8) #7
  %9 = load ptr, ptr %5, align 8
  call void @asn1_ctx_init(ptr noundef %8, i32 noundef 1, i1 noundef zeroext true, ptr noundef %9)
  %10 = load ptr, ptr %4, align 8
  %11 = load i32, ptr %7, align 4
  %12 = load ptr, ptr %6, align 8
  %13 = load i32, ptr @hf_t124_DomainMCSPDU_PDU, align 4
  %14 = call i32 @dissect_t124_DomainMCSPDU(ptr noundef %10, i32 noundef %11, ptr noundef %8, ptr noundef %12, i32 noundef %13)
  store i32 %14, ptr %7, align 4
  %15 = load i32, ptr %7, align 4
  %16 = add i32 %15, 7
  store i32 %16, ptr %7, align 4
  %17 = load i32, ptr %7, align 4
  %18 = ashr i32 %17, 3
  store i32 %18, ptr %7, align 4
  %19 = load i32, ptr %7, align 4
  call void @llvm.lifetime.end.p0(i64 208, ptr %8) #7
  call void @llvm.lifetime.end.p0(i64 4, ptr %7) #7
  ret i32 %19
}