; Function Attrs: null_pointer_is_valid sspstrong uwtable
define hidden range(i32 -268435456, 268435456) i32 @dissect_DomainMCSPDU_PDU(ptr noundef %0, ptr noundef %1, ptr noundef %2) local_unnamed_addr #0 {
  %4 = alloca i32, align 4
  %5 = alloca %struct._asn1_ctx_t, align 8
  call void @llvm.lifetime.start.p0(i64 208, ptr nonnull %5) #8
  call void @asn1_ctx_init(ptr noundef nonnull %5, i32 noundef 1, i1 noundef zeroext true, ptr noundef %1)
  %6 = load i32, ptr @hf_t124_DomainMCSPDU_PDU, align 4
  call void @llvm.lifetime.start.p0(i64 4, ptr nonnull %4) #8
  %7 = load i32, ptr @ett_t124_DomainMCSPDU, align 4
  %8 = call i32 @dissect_per_choice(ptr noundef %0, i32 noundef 0, ptr noundef nonnull %5, ptr noundef %2, i32 noundef %6, i32 noundef %7, ptr noundef nonnull @DomainMCSPDU_choice, ptr noundef nonnull %4)
  %9 = load i32, ptr %4, align 4
  %.off.i = add i32 %9, -25
  %switch.i = icmp ult i32 %.off.i, 4
  br i1 %switch.i, label %dissect_t124_DomainMCSPDU.exit, label %10

10:                                               ; preds = %3
  %11 = getelementptr inbounds nuw i8, ptr %5, i64 16
  %12 = load ptr, ptr %11, align 8
  %13 = getelementptr inbounds nuw i8, ptr %12, i64 8
  %14 = load ptr, ptr %13, align 8
  %15 = call ptr @val_to_str_const(i32 noundef %9, ptr noundef nonnull @t124_DomainMCSPDU_vals, ptr noundef nonnull @.str.483)
  call void (ptr, i32, ptr, ...) @col_prepend_fstr(ptr noundef %14, i32 noundef 25, ptr noundef nonnull @.str.482, ptr noundef %15)
  br label %dissect_t124_DomainMCSPDU.exit

dissect_t124_DomainMCSPDU.exit:                   ; preds = %3, %10
  call void @llvm.lifetime.end.p0(i64 4, ptr nonnull %4) #8
  %16 = add i32 %8, 7
  %17 = ashr i32 %16, 3
  call void @llvm.lifetime.end.p0(i64 208, ptr nonnull %5) #8
  ret i32 %17
}